# SymbolsHelper-Confirmed: 5.15.1 amd64
libQt5Gamepad.so.5 libqt5gamepad5 #MINVER#
* Build-Depends-Package: libqt5gamepad5-dev
 Qt_5.0@Qt_5.0 5.10.1
 Qt_5.10@Qt_5.10 5.10.1
 Qt_5.11@Qt_5.11 5.11.1
 Qt_5.12@Qt_5.12 5.12.0
 Qt_5.13@Qt_5.13 5.14.2
 Qt_5.14@Qt_5.14 5.14.2
 Qt_5.15@Qt_5.15 5.15.1
 Qt_5.1@Qt_5.1 5.10.1
 Qt_5.2@Qt_5.2 5.10.1
 Qt_5.3@Qt_5.3 5.10.1
 Qt_5.4@Qt_5.4 5.10.1
 Qt_5.5@Qt_5.5 5.10.1
 Qt_5.6@Qt_5.6 5.10.1
 Qt_5.7@Qt_5.7 5.10.1
 Qt_5.8@Qt_5.8 5.10.1
 Qt_5.9@Qt_5.9 5.10.1
 Qt_5@Qt_5 5.10.1
 Qt_5_PRIVATE_API@Qt_5_PRIVATE_API 5.10.1
 _ZN15QGamepadBackend11qt_metacallEN11QMetaObject4CallEiPPv@Qt_5_PRIVATE_API 5.10.1
 _ZN15QGamepadBackend11qt_metacastEPKc@Qt_5_PRIVATE_API 5.10.1
 _ZN15QGamepadBackend12gamepadAddedEi@Qt_5_PRIVATE_API 5.10.1
 _ZN15QGamepadBackend12gamepadNamedEiRK7QString@Qt_5_PRIVATE_API 5.11.1
 _ZN15QGamepadBackend12readSettingsEi@Qt_5_PRIVATE_API 5.10.1
 _ZN15QGamepadBackend12saveSettingsEiRK8QVariant@Qt_5_PRIVATE_API 5.10.1
 _ZN15QGamepadBackend13configureAxisEiN15QGamepadManager11GamepadAxisE@Qt_5_PRIVATE_API 5.10.1
 _ZN15QGamepadBackend14axisConfiguredEiN15QGamepadManager11GamepadAxisE@Qt_5_PRIVATE_API 5.10.1
 _ZN15QGamepadBackend14gamepadRemovedEi@Qt_5_PRIVATE_API 5.10.1
 _ZN15QGamepadBackend15configureButtonEiN15QGamepadManager13GamepadButtonE@Qt_5_PRIVATE_API 5.10.1
 _ZN15QGamepadBackend15setSettingsFileERK7QString@Qt_5_PRIVATE_API 5.10.1
 _ZN15QGamepadBackend16buttonConfiguredEiN15QGamepadManager13GamepadButtonE@Qt_5_PRIVATE_API 5.10.1
 _ZN15QGamepadBackend16gamepadAxisMovedEiN15QGamepadManager11GamepadAxisEd@Qt_5_PRIVATE_API 5.10.1
 _ZN15QGamepadBackend16staticMetaObjectE@Qt_5_PRIVATE_API 5.10.1
 _ZN15QGamepadBackend18resetConfigurationEi@Qt_5_PRIVATE_API 5.10.1
 _ZN15QGamepadBackend20gamepadButtonPressedEiN15QGamepadManager13GamepadButtonEd@Qt_5_PRIVATE_API 5.10.1
 _ZN15QGamepadBackend21configurationCanceledEi@Qt_5_PRIVATE_API 5.10.1
 _ZN15QGamepadBackend21gamepadButtonReleasedEiN15QGamepadManager13GamepadButtonE@Qt_5_PRIVATE_API 5.10.1
 _ZN15QGamepadBackend21isConfigurationNeededEi@Qt_5_PRIVATE_API 5.10.1
 _ZN15QGamepadBackend24setCancelConfigureButtonEiN15QGamepadManager13GamepadButtonE@Qt_5_PRIVATE_API 5.10.1
 _ZN15QGamepadBackend4stopEv@Qt_5_PRIVATE_API 5.10.1
 _ZN15QGamepadBackend5startEv@Qt_5_PRIVATE_API 5.10.1
 _ZN15QGamepadBackendC1EP7QObject@Qt_5_PRIVATE_API 5.10.1
 _ZN15QGamepadBackendC2EP7QObject@Qt_5_PRIVATE_API 5.10.1
 _ZN15QGamepadManager11qt_metacallEN11QMetaObject4CallEiPPv@Qt_5 5.10.1
 _ZN15QGamepadManager11qt_metacastEPKc@Qt_5 5.10.1
 _ZN15QGamepadManager13configureAxisEiNS_11GamepadAxisE@Qt_5 5.10.1
 _ZN15QGamepadManager14axisConfiguredEiNS_11GamepadAxisE@Qt_5 5.10.1
 _ZN15QGamepadManager15configureButtonEiNS_13GamepadButtonE@Qt_5 5.10.1
 _ZN15QGamepadManager15setSettingsFileERK7QString@Qt_5 5.10.1
 _ZN15QGamepadManager16buttonConfiguredEiNS_13GamepadButtonE@Qt_5 5.10.1
 _ZN15QGamepadManager16gamepadAxisEventEiNS_11GamepadAxisEd@Qt_5 5.10.1
 _ZN15QGamepadManager16gamepadConnectedEi@Qt_5 5.10.1
 _ZN15QGamepadManager16staticMetaObjectE@Qt_5 5.10.1
 _ZN15QGamepadManager18gamepadNameChangedEiRK7QString@Qt_5 5.11.1
 _ZN15QGamepadManager18resetConfigurationEi@Qt_5 5.10.1
 _ZN15QGamepadManager19gamepadDisconnectedEi@Qt_5 5.10.1
 _ZN15QGamepadManager21configurationCanceledEi@Qt_5 5.10.1
 _ZN15QGamepadManager23gamepadButtonPressEventEiNS_13GamepadButtonEd@Qt_5 5.10.1
 _ZN15QGamepadManager24connectedGamepadsChangedEv@Qt_5 5.10.1
 _ZN15QGamepadManager24setCancelConfigureButtonEiNS_13GamepadButtonE@Qt_5 5.10.1
 _ZN15QGamepadManager25gamepadButtonReleaseEventEiNS_13GamepadButtonE@Qt_5 5.10.1
 _ZN15QGamepadManager8instanceEv@Qt_5 5.10.1
 _ZN15QGamepadManagerC1Ev@Qt_5 5.10.1
 _ZN15QGamepadManagerC2Ev@Qt_5 5.10.1
 _ZN15QGamepadManagerD0Ev@Qt_5 5.10.1
 _ZN15QGamepadManagerD1Ev@Qt_5 5.10.1
 _ZN15QGamepadManagerD2Ev@Qt_5 5.10.1
 _ZN21QGamepadBackendPlugin11qt_metacallEN11QMetaObject4CallEiPPv@Qt_5_PRIVATE_API 5.10.1
 _ZN21QGamepadBackendPlugin11qt_metacastEPKc@Qt_5_PRIVATE_API 5.10.1
 _ZN21QGamepadBackendPlugin16staticMetaObjectE@Qt_5_PRIVATE_API 5.10.1
 _ZN21QGamepadBackendPluginC1EP7QObject@Qt_5_PRIVATE_API 5.10.1
 _ZN21QGamepadBackendPluginC2EP7QObject@Qt_5_PRIVATE_API 5.10.1
 _ZN21QGamepadBackendPluginD0Ev@Qt_5_PRIVATE_API 5.10.1
 _ZN21QGamepadBackendPluginD1Ev@Qt_5_PRIVATE_API 5.10.1
 _ZN21QGamepadBackendPluginD2Ev@Qt_5_PRIVATE_API 5.10.1
 _ZN21QGamepadKeyNavigation10setDownKeyEN2Qt3KeyE@Qt_5 5.10.1
 _ZN21QGamepadKeyNavigation10setGamepadEP8QGamepad@Qt_5 5.10.1
 _ZN21QGamepadKeyNavigation10setLeftKeyEN2Qt3KeyE@Qt_5 5.10.1
 _ZN21QGamepadKeyNavigation11qt_metacallEN11QMetaObject4CallEiPPv@Qt_5 5.10.1
 _ZN21QGamepadKeyNavigation11qt_metacastEPKc@Qt_5 5.10.1
 _ZN21QGamepadKeyNavigation11setRightKeyEN2Qt3KeyE@Qt_5 5.10.1
 _ZN21QGamepadKeyNavigation12upKeyChangedEN2Qt3KeyE@Qt_5 5.10.1
 _ZN21QGamepadKeyNavigation13activeChangedEb@Qt_5 5.10.1
 _ZN21QGamepadKeyNavigation13setButtonAKeyEN2Qt3KeyE@Qt_5 5.10.1
 _ZN21QGamepadKeyNavigation13setButtonBKeyEN2Qt3KeyE@Qt_5 5.10.1
 _ZN21QGamepadKeyNavigation13setButtonXKeyEN2Qt3KeyE@Qt_5 5.10.1
 _ZN21QGamepadKeyNavigation13setButtonYKeyEN2Qt3KeyE@Qt_5 5.10.1
 _ZN21QGamepadKeyNavigation14downKeyChangedEN2Qt3KeyE@Qt_5 5.10.1
 _ZN21QGamepadKeyNavigation14gamepadChangedEP8QGamepad@Qt_5 5.10.1
 _ZN21QGamepadKeyNavigation14leftKeyChangedEN2Qt3KeyE@Qt_5 5.10.1
 _ZN21QGamepadKeyNavigation14setButtonL1KeyEN2Qt3KeyE@Qt_5 5.10.1
 _ZN21QGamepadKeyNavigation14setButtonL2KeyEN2Qt3KeyE@Qt_5 5.10.1
 _ZN21QGamepadKeyNavigation14setButtonL3KeyEN2Qt3KeyE@Qt_5 5.10.1
 _ZN21QGamepadKeyNavigation14setButtonR1KeyEN2Qt3KeyE@Qt_5 5.10.1
 _ZN21QGamepadKeyNavigation14setButtonR2KeyEN2Qt3KeyE@Qt_5 5.10.1
 _ZN21QGamepadKeyNavigation14setButtonR3KeyEN2Qt3KeyE@Qt_5 5.10.1
 _ZN21QGamepadKeyNavigation15rightKeyChangedEN2Qt3KeyE@Qt_5 5.10.1
 _ZN21QGamepadKeyNavigation16staticMetaObjectE@Qt_5 5.10.1
 _ZN21QGamepadKeyNavigation17buttonAKeyChangedEN2Qt3KeyE@Qt_5 5.10.1
 _ZN21QGamepadKeyNavigation17buttonBKeyChangedEN2Qt3KeyE@Qt_5 5.10.1
 _ZN21QGamepadKeyNavigation17buttonXKeyChangedEN2Qt3KeyE@Qt_5 5.10.1
 _ZN21QGamepadKeyNavigation17buttonYKeyChangedEN2Qt3KeyE@Qt_5 5.10.1
 _ZN21QGamepadKeyNavigation17setButtonGuideKeyEN2Qt3KeyE@Qt_5 5.10.1
 _ZN21QGamepadKeyNavigation17setButtonStartKeyEN2Qt3KeyE@Qt_5 5.10.1
 _ZN21QGamepadKeyNavigation18buttonL1KeyChangedEN2Qt3KeyE@Qt_5 5.10.1
 _ZN21QGamepadKeyNavigation18buttonL2KeyChangedEN2Qt3KeyE@Qt_5 5.10.1
 _ZN21QGamepadKeyNavigation18buttonL3KeyChangedEN2Qt3KeyE@Qt_5 5.10.1
 _ZN21QGamepadKeyNavigation18buttonR1KeyChangedEN2Qt3KeyE@Qt_5 5.10.1
 _ZN21QGamepadKeyNavigation18buttonR2KeyChangedEN2Qt3KeyE@Qt_5 5.10.1
 _ZN21QGamepadKeyNavigation18buttonR3KeyChangedEN2Qt3KeyE@Qt_5 5.10.1
 _ZN21QGamepadKeyNavigation18setButtonSelectKeyEN2Qt3KeyE@Qt_5 5.10.1
 _ZN21QGamepadKeyNavigation21buttonGuideKeyChangedEN2Qt3KeyE@Qt_5 5.10.1
 _ZN21QGamepadKeyNavigation21buttonStartKeyChangedEN2Qt3KeyE@Qt_5 5.10.1
 _ZN21QGamepadKeyNavigation22buttonSelectKeyChangedEN2Qt3KeyE@Qt_5 5.10.1
 _ZN21QGamepadKeyNavigation8setUpKeyEN2Qt3KeyE@Qt_5 5.10.1
 _ZN21QGamepadKeyNavigation9setActiveEb@Qt_5 5.10.1
 _ZN21QGamepadKeyNavigationC1EP7QObject@Qt_5 5.10.1
 _ZN21QGamepadKeyNavigationC2EP7QObject@Qt_5 5.10.1
 _ZN22QGamepadBackendFactory4keysERK7QString@Qt_5_PRIVATE_API 5.10.1
 _ZN22QGamepadBackendFactory6createERK7QStringRK11QStringListS2_@Qt_5_PRIVATE_API 5.10.1
 _ZN8QGamepad11nameChangedE7QString@Qt_5 5.10.1
 _ZN8QGamepad11qt_metacallEN11QMetaObject4CallEiPPv@Qt_5 5.10.1
 _ZN8QGamepad11qt_metacastEPKc@Qt_5 5.10.1
 _ZN8QGamepad11setDeviceIdEi@Qt_5 5.10.1
 _ZN8QGamepad14buttonAChangedEb@Qt_5 5.10.1
 _ZN8QGamepad14buttonBChangedEb@Qt_5 5.10.1
 _ZN8QGamepad14buttonXChangedEb@Qt_5 5.10.1
 _ZN8QGamepad14buttonYChangedEb@Qt_5 5.10.1
 _ZN8QGamepad15buttonL1ChangedEb@Qt_5 5.10.1
 _ZN8QGamepad15buttonL2ChangedEd@Qt_5 5.10.1
 _ZN8QGamepad15buttonL3ChangedEb@Qt_5 5.10.1
 _ZN8QGamepad15buttonR1ChangedEb@Qt_5 5.10.1
 _ZN8QGamepad15buttonR2ChangedEd@Qt_5 5.10.1
 _ZN8QGamepad15buttonR3ChangedEb@Qt_5 5.10.1
 _ZN8QGamepad15buttonUpChangedEb@Qt_5 5.10.1
 _ZN8QGamepad15deviceIdChangedEi@Qt_5 5.10.1
 _ZN8QGamepad16axisLeftXChangedEd@Qt_5 5.10.1
 _ZN8QGamepad16axisLeftYChangedEd@Qt_5 5.10.1
 _ZN8QGamepad16connectedChangedEb@Qt_5 5.10.1
 _ZN8QGamepad16staticMetaObjectE@Qt_5 5.10.1
 _ZN8QGamepad17axisRightXChangedEd@Qt_5 5.10.1
 _ZN8QGamepad17axisRightYChangedEd@Qt_5 5.10.1
 _ZN8QGamepad17buttonDownChangedEb@Qt_5 5.10.1
 _ZN8QGamepad17buttonLeftChangedEb@Qt_5 5.10.1
 _ZN8QGamepad18buttonGuideChangedEb@Qt_5 5.10.1
 _ZN8QGamepad18buttonRightChangedEb@Qt_5 5.10.1
 _ZN8QGamepad18buttonStartChangedEb@Qt_5 5.10.1
 _ZN8QGamepad19buttonCenterChangedEb@Qt_5 5.10.1
 _ZN8QGamepad19buttonSelectChangedEb@Qt_5 5.10.1
 _ZN8QGamepadC1EiP7QObject@Qt_5 5.10.1
 _ZN8QGamepadC2EiP7QObject@Qt_5 5.10.1
 _ZN8QGamepadD0Ev@Qt_5 5.10.1
 _ZN8QGamepadD1Ev@Qt_5 5.10.1
 _ZN8QGamepadD2Ev@Qt_5 5.10.1
 _ZNK15QGamepadBackend10metaObjectEv@Qt_5_PRIVATE_API 5.10.1
 _ZNK15QGamepadManager10metaObjectEv@Qt_5 5.10.1
 _ZNK15QGamepadManager11gamepadNameEi@Qt_5 5.11.1
 _ZNK15QGamepadManager17connectedGamepadsEv@Qt_5 5.10.1
 _ZNK15QGamepadManager18isGamepadConnectedEi@Qt_5 5.10.1
 _ZNK15QGamepadManager21isConfigurationNeededEi@Qt_5 5.10.1
 _ZNK21QGamepadBackendPlugin10metaObjectEv@Qt_5_PRIVATE_API 5.10.1
 _ZNK21QGamepadKeyNavigation10buttonAKeyEv@Qt_5 5.10.1
 _ZNK21QGamepadKeyNavigation10buttonBKeyEv@Qt_5 5.10.1
 _ZNK21QGamepadKeyNavigation10buttonXKeyEv@Qt_5 5.10.1
 _ZNK21QGamepadKeyNavigation10buttonYKeyEv@Qt_5 5.10.1
 _ZNK21QGamepadKeyNavigation10metaObjectEv@Qt_5 5.10.1
 _ZNK21QGamepadKeyNavigation11buttonL1KeyEv@Qt_5 5.10.1
 _ZNK21QGamepadKeyNavigation11buttonL2KeyEv@Qt_5 5.10.1
 _ZNK21QGamepadKeyNavigation11buttonL3KeyEv@Qt_5 5.10.1
 _ZNK21QGamepadKeyNavigation11buttonR1KeyEv@Qt_5 5.10.1
 _ZNK21QGamepadKeyNavigation11buttonR2KeyEv@Qt_5 5.10.1
 _ZNK21QGamepadKeyNavigation11buttonR3KeyEv@Qt_5 5.10.1
 _ZNK21QGamepadKeyNavigation14buttonGuideKeyEv@Qt_5 5.10.1
 _ZNK21QGamepadKeyNavigation14buttonStartKeyEv@Qt_5 5.10.1
 _ZNK21QGamepadKeyNavigation15buttonSelectKeyEv@Qt_5 5.10.1
 _ZNK21QGamepadKeyNavigation5upKeyEv@Qt_5 5.10.1
 _ZNK21QGamepadKeyNavigation6activeEv@Qt_5 5.10.1
 _ZNK21QGamepadKeyNavigation7downKeyEv@Qt_5 5.10.1
 _ZNK21QGamepadKeyNavigation7gamepadEv@Qt_5 5.10.1
 _ZNK21QGamepadKeyNavigation7leftKeyEv@Qt_5 5.10.1
 _ZNK21QGamepadKeyNavigation8rightKeyEv@Qt_5 5.10.1
 _ZNK8QGamepad10axisRightXEv@Qt_5 5.10.1
 _ZNK8QGamepad10axisRightYEv@Qt_5 5.10.1
 _ZNK8QGamepad10buttonDownEv@Qt_5 5.10.1
 _ZNK8QGamepad10buttonLeftEv@Qt_5 5.10.1
 _ZNK8QGamepad10metaObjectEv@Qt_5 5.10.1
 _ZNK8QGamepad11buttonGuideEv@Qt_5 5.10.1
 _ZNK8QGamepad11buttonRightEv@Qt_5 5.10.1
 _ZNK8QGamepad11buttonStartEv@Qt_5 5.10.1
 _ZNK8QGamepad11isConnectedEv@Qt_5 5.10.1
 _ZNK8QGamepad12buttonCenterEv@Qt_5 5.10.1
 _ZNK8QGamepad12buttonSelectEv@Qt_5 5.10.1
 _ZNK8QGamepad4nameEv@Qt_5 5.10.1
 _ZNK8QGamepad7buttonAEv@Qt_5 5.10.1
 _ZNK8QGamepad7buttonBEv@Qt_5 5.10.1
 _ZNK8QGamepad7buttonXEv@Qt_5 5.10.1
 _ZNK8QGamepad7buttonYEv@Qt_5 5.10.1
 _ZNK8QGamepad8buttonL1Ev@Qt_5 5.10.1
 _ZNK8QGamepad8buttonL2Ev@Qt_5 5.10.1
 _ZNK8QGamepad8buttonL3Ev@Qt_5 5.10.1
 _ZNK8QGamepad8buttonR1Ev@Qt_5 5.10.1
 _ZNK8QGamepad8buttonR2Ev@Qt_5 5.10.1
 _ZNK8QGamepad8buttonR3Ev@Qt_5 5.10.1
 _ZNK8QGamepad8buttonUpEv@Qt_5 5.10.1
 _ZNK8QGamepad8deviceIdEv@Qt_5 5.10.1
 _ZNK8QGamepad9axisLeftXEv@Qt_5 5.10.1
 _ZNK8QGamepad9axisLeftYEv@Qt_5 5.10.1
 _ZTI15QGamepadBackend@Qt_5_PRIVATE_API 5.10.1
 _ZTI15QGamepadManager@Qt_5 5.10.1
 _ZTI21QGamepadBackendPlugin@Qt_5_PRIVATE_API 5.10.1
 _ZTI21QGamepadKeyNavigation@Qt_5 5.10.1
 _ZTI8QGamepad@Qt_5 5.10.1
 _ZTS15QGamepadBackend@Qt_5_PRIVATE_API 5.10.1
 _ZTS15QGamepadManager@Qt_5 5.10.1
 _ZTS21QGamepadBackendPlugin@Qt_5_PRIVATE_API 5.10.1
 _ZTS21QGamepadKeyNavigation@Qt_5 5.10.1
 _ZTS8QGamepad@Qt_5 5.10.1
 _ZTV15QGamepadBackend@Qt_5_PRIVATE_API 5.10.1
 _ZTV15QGamepadManager@Qt_5 5.10.1
 _ZTV21QGamepadBackendPlugin@Qt_5_PRIVATE_API 5.10.1
 _ZTV21QGamepadKeyNavigation@Qt_5 5.10.1
 _ZTV8QGamepad@Qt_5 5.10.1
